ARM GAS  C:\Users\Arisvis\AppData\Local\Temp\cc4xzKPt.s 			page 1


   1              		.syntax unified
   2              		.cpu cortex-m3
   3              		.fpu softvfp
   4              		.eabi_attribute 20, 1
   5              		.eabi_attribute 21, 1
   6              		.eabi_attribute 23, 3
   7              		.eabi_attribute 24, 1
   8              		.eabi_attribute 25, 1
   9              		.eabi_attribute 26, 1
  10              		.eabi_attribute 30, 6
  11              		.eabi_attribute 34, 1
  12              		.eabi_attribute 18, 4
  13              		.thumb
  14              		.syntax unified
  15              		.file	"BMP280.c"
  16              		.text
  17              	.Ltext0:
  18              		.cfi_sections	.debug_frame
  19              		.global	bmp280
  20              		.data
  21              		.align	2
  22              		.type	bmp280, %object
  23              		.size	bmp280, 44
  24              	bmp280:
  25 0000 00       		.byte	0
  26 0001 76       		.byte	118
  27 0002 0A       		.byte	10
  28 0003 03       		.byte	3
  29 0004 0000     		.space	2
  30 0006 02       		.byte	2
  31 0007 05       		.byte	5
  32 0008 00000000 		.space	24
  32      00000000 
  32      00000000 
  32      00000000 
  32      00000000 
  33 0020 00000000 		.word	0
  34 0024 003C1CC6 		.word	-971228160
  35 0028 003C1CC6 		.word	-971228160
  36              		.section	.text.BMP280_start,"ax",%progbits
  37              		.align	2
  38              		.global	BMP280_start
  39              		.thumb
  40              		.thumb_func
  41              		.type	BMP280_start, %function
  42              	BMP280_start:
  43              	.LFB56:
  44              		.file 1 "BMP280.c"
   1:BMP280.c      **** /* ========================================
   2:BMP280.c      ****  *
   3:BMP280.c      **** Library created by Fabricio Arismendi Svistoñuk,
   4:BMP280.c      **** for operation of the BMP280 temperature and Pressure sensor
   5:BMP280.c      **** under the PSoC 5lp platform (not compatible with BME280 or BMP180).
   6:BMP280.c      **** 
   7:BMP280.c      **** To be used with the BME280 sensor, it is necessary to modify the registers.
   8:BMP280.c      ****  *
   9:BMP280.c      ****  * ========================================
ARM GAS  C:\Users\Arisvis\AppData\Local\Temp\cc4xzKPt.s 			page 2


  10:BMP280.c      **** */
  11:BMP280.c      **** 
  12:BMP280.c      **** #include "BMP280.h"
  13:BMP280.c      **** #include <math.h>
  14:BMP280.c      **** 
  15:BMP280.c      **** 
  16:BMP280.c      **** //****************************************************************************//
  17:BMP280.c      **** //
  18:BMP280.c      **** //  Settings and configuration
  19:BMP280.c      **** //
  20:BMP280.c      **** //****************************************************************************//
  21:BMP280.c      **** 
  22:BMP280.c      **** //Construct with these default settings if nothing is specified
  23:BMP280.c      **** BMP280 bmp280 = {
  24:BMP280.c      ****     .settings = {
  25:BMP280.c      ****         //Select interface mode
  26:BMP280.c      ****         .commInterface  = BMP280_I2C_MODE,
  27:BMP280.c      ****     	//Select address for I2C.  Does nothing for SPI            
  28:BMP280.c      ****         .I2CAddress     = 0x76,
  29:BMP280.c      ****     	//Select CS pin for SPI.  Does nothing for I2C            
  30:BMP280.c      ****         .chipSelectPin  = 10,
  31:BMP280.c      ****         .runMode        = 3,
  32:BMP280.c      ****         .tempOverSample = 2,
  33:BMP280.c      ****         .pressOverSample= 5,
  34:BMP280.c      **** 
  35:BMP280.c      ****         },
  36:BMP280.c      ****     .calibration = {},
  37:BMP280.c      ****     .t_fine = 0,
  38:BMP280.c      ****     .temp_C     = -9999,
  39:BMP280.c      ****     .press_Pa   = -9999,
  40:BMP280.c      **** 
  41:BMP280.c      **** };
  42:BMP280.c      **** 
  43:BMP280.c      **** void BMP280_start() {
  45              		.loc 1 43 0
  46              		.cfi_startproc
  47              		@ args = 0, pretend = 0, frame = 0
  48              		@ frame_needed = 1, uses_anonymous_args = 0
  49 0000 80B5     		push	{r7, lr}
  50              		.cfi_def_cfa_offset 8
  51              		.cfi_offset 7, -8
  52              		.cfi_offset 14, -4
  53 0002 00AF     		add	r7, sp, #0
  54              		.cfi_def_cfa_register 7
  44:BMP280.c      ****     I2C_Start();
  55              		.loc 1 44 0
  56 0004 FFF7FEFF 		bl	I2C_Start
  45:BMP280.c      ****     I2C_Sleep();
  57              		.loc 1 45 0
  58 0008 FFF7FEFF 		bl	I2C_Sleep
  46:BMP280.c      **** }
  59              		.loc 1 46 0
  60 000c 00BF     		nop
  61 000e 80BD     		pop	{r7, pc}
  62              		.cfi_endproc
  63              	.LFE56:
  64              		.size	BMP280_start, .-BMP280_start
ARM GAS  C:\Users\Arisvis\AppData\Local\Temp\cc4xzKPt.s 			page 3


  65              		.section	.text.BMP280_stop,"ax",%progbits
  66              		.align	2
  67              		.global	BMP280_stop
  68              		.thumb
  69              		.thumb_func
  70              		.type	BMP280_stop, %function
  71              	BMP280_stop:
  72              	.LFB57:
  47:BMP280.c      **** 
  48:BMP280.c      **** void BMP280_stop() {
  73              		.loc 1 48 0
  74              		.cfi_startproc
  75              		@ args = 0, pretend = 0, frame = 0
  76              		@ frame_needed = 1, uses_anonymous_args = 0
  77 0000 80B5     		push	{r7, lr}
  78              		.cfi_def_cfa_offset 8
  79              		.cfi_offset 7, -8
  80              		.cfi_offset 14, -4
  81 0002 00AF     		add	r7, sp, #0
  82              		.cfi_def_cfa_register 7
  49:BMP280.c      ****     I2C_Stop();
  83              		.loc 1 49 0
  84 0004 FFF7FEFF 		bl	I2C_Stop
  50:BMP280.c      **** }
  85              		.loc 1 50 0
  86 0008 00BF     		nop
  87 000a 80BD     		pop	{r7, pc}
  88              		.cfi_endproc
  89              	.LFE57:
  90              		.size	BMP280_stop, .-BMP280_stop
  91              		.section	.text.BMP280_init,"ax",%progbits
  92              		.align	2
  93              		.global	BMP280_init
  94              		.thumb
  95              		.thumb_func
  96              		.type	BMP280_init, %function
  97              	BMP280_init:
  98              	.LFB58:
  51:BMP280.c      **** 
  52:BMP280.c      **** //****************************************************************************//
  53:BMP280.c      **** //
  54:BMP280.c      **** //  Configuration section
  55:BMP280.c      **** //
  56:BMP280.c      **** //  This uses the stored SensorSettings to start the IMU
  57:BMP280.c      **** //  Use statements such as "mySensor.settings.commInterface = SPI_MODE;" to 
  58:BMP280.c      **** //  configure before calling .begin();
  59:BMP280.c      **** //
  60:BMP280.c      **** //****************************************************************************//
  61:BMP280.c      **** uint8_t BMP280_init()
  62:BMP280.c      **** {
  99              		.loc 1 62 0
 100              		.cfi_startproc
 101              		@ args = 0, pretend = 0, frame = 8
 102              		@ frame_needed = 1, uses_anonymous_args = 0
 103 0000 90B5     		push	{r4, r7, lr}
 104              		.cfi_def_cfa_offset 12
 105              		.cfi_offset 4, -12
ARM GAS  C:\Users\Arisvis\AppData\Local\Temp\cc4xzKPt.s 			page 4


 106              		.cfi_offset 7, -8
 107              		.cfi_offset 14, -4
 108 0002 83B0     		sub	sp, sp, #12
 109              		.cfi_def_cfa_offset 24
 110 0004 00AF     		add	r7, sp, #0
 111              		.cfi_def_cfa_register 7
  63:BMP280.c      **** 	//Check the settings structure values to determine how to setup the device
  64:BMP280.c      **** 	uint8_t data_to_write = 0, device_address;  //Temporary variable
 112              		.loc 1 64 0
 113 0006 0023     		movs	r3, #0
 114 0008 FB71     		strb	r3, [r7, #7]
  65:BMP280.c      **** 	I2C_Start();
 115              		.loc 1 65 0
 116 000a FFF7FEFF 		bl	I2C_Start
  66:BMP280.c      ****     I2C_Sleep();
 117              		.loc 1 66 0
 118 000e FFF7FEFF 		bl	I2C_Sleep
  67:BMP280.c      ****     
  68:BMP280.c      **** 	//Reading all compensation data, range 0x88:A1, 0xE1:E7
  69:BMP280.c      **** 	bmp280.calibration.dig_T1 = ((uint16_t)((BMP280_readRegister(BMP280_DIG_T1_MSB_REG) << 8) + BMP280
 119              		.loc 1 69 0
 120 0012 8920     		movs	r0, #137
 121 0014 FFF7FEFF 		bl	BMP280_readRegister
 122 0018 0346     		mov	r3, r0
 123 001a 9BB2     		uxth	r3, r3
 124 001c 1B02     		lsls	r3, r3, #8
 125 001e 9CB2     		uxth	r4, r3
 126 0020 8820     		movs	r0, #136
 127 0022 FFF7FEFF 		bl	BMP280_readRegister
 128 0026 0346     		mov	r3, r0
 129 0028 9BB2     		uxth	r3, r3
 130 002a 2344     		add	r3, r3, r4
 131 002c 9AB2     		uxth	r2, r3
 132 002e 7F4B     		ldr	r3, .L5
 133 0030 1A81     		strh	r2, [r3, #8]	@ movhi
  70:BMP280.c      **** 	bmp280.calibration.dig_T2 = ((int16_t)((BMP280_readRegister(BMP280_DIG_T2_MSB_REG) << 8) + BMP280_
 134              		.loc 1 70 0
 135 0032 8B20     		movs	r0, #139
 136 0034 FFF7FEFF 		bl	BMP280_readRegister
 137 0038 0346     		mov	r3, r0
 138 003a 9BB2     		uxth	r3, r3
 139 003c 1B02     		lsls	r3, r3, #8
 140 003e 9CB2     		uxth	r4, r3
 141 0040 8A20     		movs	r0, #138
 142 0042 FFF7FEFF 		bl	BMP280_readRegister
 143 0046 0346     		mov	r3, r0
 144 0048 9BB2     		uxth	r3, r3
 145 004a 2344     		add	r3, r3, r4
 146 004c 9BB2     		uxth	r3, r3
 147 004e 1AB2     		sxth	r2, r3
 148 0050 764B     		ldr	r3, .L5
 149 0052 5A81     		strh	r2, [r3, #10]	@ movhi
  71:BMP280.c      **** 	bmp280.calibration.dig_T3 = ((int16_t)((BMP280_readRegister(BMP280_DIG_T3_MSB_REG) << 8) + BMP280_
 150              		.loc 1 71 0
 151 0054 8D20     		movs	r0, #141
 152 0056 FFF7FEFF 		bl	BMP280_readRegister
 153 005a 0346     		mov	r3, r0
ARM GAS  C:\Users\Arisvis\AppData\Local\Temp\cc4xzKPt.s 			page 5


 154 005c 9BB2     		uxth	r3, r3
 155 005e 1B02     		lsls	r3, r3, #8
 156 0060 9CB2     		uxth	r4, r3
 157 0062 8C20     		movs	r0, #140
 158 0064 FFF7FEFF 		bl	BMP280_readRegister
 159 0068 0346     		mov	r3, r0
 160 006a 9BB2     		uxth	r3, r3
 161 006c 2344     		add	r3, r3, r4
 162 006e 9BB2     		uxth	r3, r3
 163 0070 1AB2     		sxth	r2, r3
 164 0072 6E4B     		ldr	r3, .L5
 165 0074 9A81     		strh	r2, [r3, #12]	@ movhi
  72:BMP280.c      **** 
  73:BMP280.c      **** 	bmp280.calibration.dig_P1 = ((uint16_t)((BMP280_readRegister(BMP280_DIG_P1_MSB_REG) << 8) + BMP280
 166              		.loc 1 73 0
 167 0076 8F20     		movs	r0, #143
 168 0078 FFF7FEFF 		bl	BMP280_readRegister
 169 007c 0346     		mov	r3, r0
 170 007e 9BB2     		uxth	r3, r3
 171 0080 1B02     		lsls	r3, r3, #8
 172 0082 9CB2     		uxth	r4, r3
 173 0084 8E20     		movs	r0, #142
 174 0086 FFF7FEFF 		bl	BMP280_readRegister
 175 008a 0346     		mov	r3, r0
 176 008c 9BB2     		uxth	r3, r3
 177 008e 2344     		add	r3, r3, r4
 178 0090 9AB2     		uxth	r2, r3
 179 0092 664B     		ldr	r3, .L5
 180 0094 DA81     		strh	r2, [r3, #14]	@ movhi
  74:BMP280.c      **** 	bmp280.calibration.dig_P2 = ((int16_t)((BMP280_readRegister(BMP280_DIG_P2_MSB_REG) << 8) + BMP280_
 181              		.loc 1 74 0
 182 0096 9120     		movs	r0, #145
 183 0098 FFF7FEFF 		bl	BMP280_readRegister
 184 009c 0346     		mov	r3, r0
 185 009e 9BB2     		uxth	r3, r3
 186 00a0 1B02     		lsls	r3, r3, #8
 187 00a2 9CB2     		uxth	r4, r3
 188 00a4 9020     		movs	r0, #144
 189 00a6 FFF7FEFF 		bl	BMP280_readRegister
 190 00aa 0346     		mov	r3, r0
 191 00ac 9BB2     		uxth	r3, r3
 192 00ae 2344     		add	r3, r3, r4
 193 00b0 9BB2     		uxth	r3, r3
 194 00b2 1AB2     		sxth	r2, r3
 195 00b4 5D4B     		ldr	r3, .L5
 196 00b6 1A82     		strh	r2, [r3, #16]	@ movhi
  75:BMP280.c      **** 	bmp280.calibration.dig_P3 = ((int16_t)((BMP280_readRegister(BMP280_DIG_P3_MSB_REG) << 8) + BMP280_
 197              		.loc 1 75 0
 198 00b8 9320     		movs	r0, #147
 199 00ba FFF7FEFF 		bl	BMP280_readRegister
 200 00be 0346     		mov	r3, r0
 201 00c0 9BB2     		uxth	r3, r3
 202 00c2 1B02     		lsls	r3, r3, #8
 203 00c4 9CB2     		uxth	r4, r3
 204 00c6 9220     		movs	r0, #146
 205 00c8 FFF7FEFF 		bl	BMP280_readRegister
 206 00cc 0346     		mov	r3, r0
ARM GAS  C:\Users\Arisvis\AppData\Local\Temp\cc4xzKPt.s 			page 6


 207 00ce 9BB2     		uxth	r3, r3
 208 00d0 2344     		add	r3, r3, r4
 209 00d2 9BB2     		uxth	r3, r3
 210 00d4 1AB2     		sxth	r2, r3
 211 00d6 554B     		ldr	r3, .L5
 212 00d8 5A82     		strh	r2, [r3, #18]	@ movhi
  76:BMP280.c      **** 	bmp280.calibration.dig_P4 = ((int16_t)((BMP280_readRegister(BMP280_DIG_P4_MSB_REG) << 8) + BMP280_
 213              		.loc 1 76 0
 214 00da 9520     		movs	r0, #149
 215 00dc FFF7FEFF 		bl	BMP280_readRegister
 216 00e0 0346     		mov	r3, r0
 217 00e2 9BB2     		uxth	r3, r3
 218 00e4 1B02     		lsls	r3, r3, #8
 219 00e6 9CB2     		uxth	r4, r3
 220 00e8 9420     		movs	r0, #148
 221 00ea FFF7FEFF 		bl	BMP280_readRegister
 222 00ee 0346     		mov	r3, r0
 223 00f0 9BB2     		uxth	r3, r3
 224 00f2 2344     		add	r3, r3, r4
 225 00f4 9BB2     		uxth	r3, r3
 226 00f6 1AB2     		sxth	r2, r3
 227 00f8 4C4B     		ldr	r3, .L5
 228 00fa 9A82     		strh	r2, [r3, #20]	@ movhi
  77:BMP280.c      **** 	bmp280.calibration.dig_P5 = ((int16_t)((BMP280_readRegister(BMP280_DIG_P5_MSB_REG) << 8) + BMP280_
 229              		.loc 1 77 0
 230 00fc 9720     		movs	r0, #151
 231 00fe FFF7FEFF 		bl	BMP280_readRegister
 232 0102 0346     		mov	r3, r0
 233 0104 9BB2     		uxth	r3, r3
 234 0106 1B02     		lsls	r3, r3, #8
 235 0108 9CB2     		uxth	r4, r3
 236 010a 9620     		movs	r0, #150
 237 010c FFF7FEFF 		bl	BMP280_readRegister
 238 0110 0346     		mov	r3, r0
 239 0112 9BB2     		uxth	r3, r3
 240 0114 2344     		add	r3, r3, r4
 241 0116 9BB2     		uxth	r3, r3
 242 0118 1AB2     		sxth	r2, r3
 243 011a 444B     		ldr	r3, .L5
 244 011c DA82     		strh	r2, [r3, #22]	@ movhi
  78:BMP280.c      **** 	bmp280.calibration.dig_P6 = ((int16_t)((BMP280_readRegister(BMP280_DIG_P6_MSB_REG) << 8) + BMP280_
 245              		.loc 1 78 0
 246 011e 9920     		movs	r0, #153
 247 0120 FFF7FEFF 		bl	BMP280_readRegister
 248 0124 0346     		mov	r3, r0
 249 0126 9BB2     		uxth	r3, r3
 250 0128 1B02     		lsls	r3, r3, #8
 251 012a 9CB2     		uxth	r4, r3
 252 012c 9820     		movs	r0, #152
 253 012e FFF7FEFF 		bl	BMP280_readRegister
 254 0132 0346     		mov	r3, r0
 255 0134 9BB2     		uxth	r3, r3
 256 0136 2344     		add	r3, r3, r4
 257 0138 9BB2     		uxth	r3, r3
 258 013a 1AB2     		sxth	r2, r3
 259 013c 3B4B     		ldr	r3, .L5
 260 013e 1A83     		strh	r2, [r3, #24]	@ movhi
ARM GAS  C:\Users\Arisvis\AppData\Local\Temp\cc4xzKPt.s 			page 7


  79:BMP280.c      **** 	bmp280.calibration.dig_P7 = ((int16_t)((BMP280_readRegister(BMP280_DIG_P7_MSB_REG) << 8) + BMP280_
 261              		.loc 1 79 0
 262 0140 9B20     		movs	r0, #155
 263 0142 FFF7FEFF 		bl	BMP280_readRegister
 264 0146 0346     		mov	r3, r0
 265 0148 9BB2     		uxth	r3, r3
 266 014a 1B02     		lsls	r3, r3, #8
 267 014c 9CB2     		uxth	r4, r3
 268 014e 9A20     		movs	r0, #154
 269 0150 FFF7FEFF 		bl	BMP280_readRegister
 270 0154 0346     		mov	r3, r0
 271 0156 9BB2     		uxth	r3, r3
 272 0158 2344     		add	r3, r3, r4
 273 015a 9BB2     		uxth	r3, r3
 274 015c 1AB2     		sxth	r2, r3
 275 015e 334B     		ldr	r3, .L5
 276 0160 5A83     		strh	r2, [r3, #26]	@ movhi
  80:BMP280.c      **** 	bmp280.calibration.dig_P8 = ((int16_t)((BMP280_readRegister(BMP280_DIG_P8_MSB_REG) << 8) + BMP280_
 277              		.loc 1 80 0
 278 0162 9D20     		movs	r0, #157
 279 0164 FFF7FEFF 		bl	BMP280_readRegister
 280 0168 0346     		mov	r3, r0
 281 016a 9BB2     		uxth	r3, r3
 282 016c 1B02     		lsls	r3, r3, #8
 283 016e 9CB2     		uxth	r4, r3
 284 0170 9C20     		movs	r0, #156
 285 0172 FFF7FEFF 		bl	BMP280_readRegister
 286 0176 0346     		mov	r3, r0
 287 0178 9BB2     		uxth	r3, r3
 288 017a 2344     		add	r3, r3, r4
 289 017c 9BB2     		uxth	r3, r3
 290 017e 1AB2     		sxth	r2, r3
 291 0180 2A4B     		ldr	r3, .L5
 292 0182 9A83     		strh	r2, [r3, #28]	@ movhi
  81:BMP280.c      **** 	bmp280.calibration.dig_P9 = ((int16_t)((BMP280_readRegister(BMP280_DIG_P9_MSB_REG) << 8) + BMP280_
 293              		.loc 1 81 0
 294 0184 9F20     		movs	r0, #159
 295 0186 FFF7FEFF 		bl	BMP280_readRegister
 296 018a 0346     		mov	r3, r0
 297 018c 9BB2     		uxth	r3, r3
 298 018e 1B02     		lsls	r3, r3, #8
 299 0190 9CB2     		uxth	r4, r3
 300 0192 9E20     		movs	r0, #158
 301 0194 FFF7FEFF 		bl	BMP280_readRegister
 302 0198 0346     		mov	r3, r0
 303 019a 9BB2     		uxth	r3, r3
 304 019c 2344     		add	r3, r3, r4
 305 019e 9BB2     		uxth	r3, r3
 306 01a0 1AB2     		sxth	r2, r3
 307 01a2 224B     		ldr	r3, .L5
 308 01a4 DA83     		strh	r2, [r3, #30]	@ movhi
  82:BMP280.c      **** 
  83:BMP280.c      **** 
  84:BMP280.c      **** 
  85:BMP280.c      **** 	//Set the oversampling control words.
  86:BMP280.c      **** 	//config will only be writeable in sleep mode, so first insure that.
  87:BMP280.c      **** 	BMP280_writeRegister(BMP280_CTRL_MEAS_REG, 0x00);
ARM GAS  C:\Users\Arisvis\AppData\Local\Temp\cc4xzKPt.s 			page 8


 309              		.loc 1 87 0
 310 01a6 0021     		movs	r1, #0
 311 01a8 F420     		movs	r0, #244
 312 01aa FFF7FEFF 		bl	BMP280_writeRegister
  88:BMP280.c      **** 	
  89:BMP280.c      **** 	//Set the config word
  90:BMP280.c      **** 	data_to_write = (bmp280.settings.tStandby << 0x5) & 0xE0;
 313              		.loc 1 90 0
 314 01ae 1F4B     		ldr	r3, .L5
 315 01b0 1B79     		ldrb	r3, [r3, #4]	@ zero_extendqisi2
 316 01b2 5B01     		lsls	r3, r3, #5
 317 01b4 FB71     		strb	r3, [r7, #7]
  91:BMP280.c      **** 	data_to_write |= (bmp280.settings.filter << 0x02) & 0x1C;
 318              		.loc 1 91 0
 319 01b6 1D4B     		ldr	r3, .L5
 320 01b8 5B79     		ldrb	r3, [r3, #5]	@ zero_extendqisi2
 321 01ba 9B00     		lsls	r3, r3, #2
 322 01bc 5BB2     		sxtb	r3, r3
 323 01be 03F01C03 		and	r3, r3, #28
 324 01c2 5AB2     		sxtb	r2, r3
 325 01c4 97F90730 		ldrsb	r3, [r7, #7]
 326 01c8 1343     		orrs	r3, r3, r2
 327 01ca 5BB2     		sxtb	r3, r3
 328 01cc FB71     		strb	r3, [r7, #7]
  92:BMP280.c      **** 	BMP280_writeRegister(BMP280_CONFIG_REG, data_to_write);
 329              		.loc 1 92 0
 330 01ce FB79     		ldrb	r3, [r7, #7]	@ zero_extendqisi2
 331 01d0 1946     		mov	r1, r3
 332 01d2 F520     		movs	r0, #245
 333 01d4 FFF7FEFF 		bl	BMP280_writeRegister
  93:BMP280.c      **** 	
  94:BMP280.c      **** 
  95:BMP280.c      **** 	
  96:BMP280.c      **** 	//set ctrl_meas
  97:BMP280.c      **** 	//First, set temp oversampling
  98:BMP280.c      **** 	data_to_write = (bmp280.settings.tempOverSample << 0x05) & 0xE0;
 334              		.loc 1 98 0
 335 01d8 144B     		ldr	r3, .L5
 336 01da 9B79     		ldrb	r3, [r3, #6]	@ zero_extendqisi2
 337 01dc 5B01     		lsls	r3, r3, #5
 338 01de FB71     		strb	r3, [r7, #7]
  99:BMP280.c      **** 	//Next, pressure oversampling
 100:BMP280.c      **** 	data_to_write |= (bmp280.settings.pressOverSample << 0x02) & 0x1C;
 339              		.loc 1 100 0
 340 01e0 124B     		ldr	r3, .L5
 341 01e2 DB79     		ldrb	r3, [r3, #7]	@ zero_extendqisi2
 342 01e4 9B00     		lsls	r3, r3, #2
 343 01e6 5BB2     		sxtb	r3, r3
 344 01e8 03F01C03 		and	r3, r3, #28
 345 01ec 5AB2     		sxtb	r2, r3
 346 01ee 97F90730 		ldrsb	r3, [r7, #7]
 347 01f2 1343     		orrs	r3, r3, r2
 348 01f4 5BB2     		sxtb	r3, r3
 349 01f6 FB71     		strb	r3, [r7, #7]
 101:BMP280.c      **** 	//Last, set mode
 102:BMP280.c      **** 	data_to_write |= (bmp280.settings.runMode) & 0x03;
 350              		.loc 1 102 0
ARM GAS  C:\Users\Arisvis\AppData\Local\Temp\cc4xzKPt.s 			page 9


 351 01f8 0C4B     		ldr	r3, .L5
 352 01fa DB78     		ldrb	r3, [r3, #3]	@ zero_extendqisi2
 353 01fc 5BB2     		sxtb	r3, r3
 354 01fe 03F00303 		and	r3, r3, #3
 355 0202 5AB2     		sxtb	r2, r3
 356 0204 97F90730 		ldrsb	r3, [r7, #7]
 357 0208 1343     		orrs	r3, r3, r2
 358 020a 5BB2     		sxtb	r3, r3
 359 020c FB71     		strb	r3, [r7, #7]
 103:BMP280.c      **** 	//Load the byte
 104:BMP280.c      **** 	BMP280_writeRegister(BMP280_CTRL_MEAS_REG, data_to_write);
 360              		.loc 1 104 0
 361 020e FB79     		ldrb	r3, [r7, #7]	@ zero_extendqisi2
 362 0210 1946     		mov	r1, r3
 363 0212 F420     		movs	r0, #244
 364 0214 FFF7FEFF 		bl	BMP280_writeRegister
 105:BMP280.c      **** 	
 106:BMP280.c      ****     // dataToWrite is a placeholder for the value we will return
 107:BMP280.c      **** 	device_address = BMP280_readRegister(0xD0);
 365              		.loc 1 107 0
 366 0218 D020     		movs	r0, #208
 367 021a FFF7FEFF 		bl	BMP280_readRegister
 368 021e 0346     		mov	r3, r0
 369 0220 BB71     		strb	r3, [r7, #6]
 108:BMP280.c      ****     return device_address;
 370              		.loc 1 108 0
 371 0222 BB79     		ldrb	r3, [r7, #6]	@ zero_extendqisi2
 109:BMP280.c      **** }
 372              		.loc 1 109 0
 373 0224 1846     		mov	r0, r3
 374 0226 0C37     		adds	r7, r7, #12
 375              		.cfi_def_cfa_offset 12
 376 0228 BD46     		mov	sp, r7
 377              		.cfi_def_cfa_register 13
 378              		@ sp needed
 379 022a 90BD     		pop	{r4, r7, pc}
 380              	.L6:
 381              		.align	2
 382              	.L5:
 383 022c 00000000 		.word	bmp280
 384              		.cfi_endproc
 385              	.LFE58:
 386              		.size	BMP280_init, .-BMP280_init
 387              		.section	.text.BMP280_reset,"ax",%progbits
 388              		.align	2
 389              		.global	BMP280_reset
 390              		.thumb
 391              		.thumb_func
 392              		.type	BMP280_reset, %function
 393              	BMP280_reset:
 394              	.LFB59:
 110:BMP280.c      **** 
 111:BMP280.c      **** 
 112:BMP280.c      **** void BMP280_reset()
 113:BMP280.c      **** {
 395              		.loc 1 113 0
 396              		.cfi_startproc
ARM GAS  C:\Users\Arisvis\AppData\Local\Temp\cc4xzKPt.s 			page 10


 397              		@ args = 0, pretend = 0, frame = 0
 398              		@ frame_needed = 1, uses_anonymous_args = 0
 399 0000 80B5     		push	{r7, lr}
 400              		.cfi_def_cfa_offset 8
 401              		.cfi_offset 7, -8
 402              		.cfi_offset 14, -4
 403 0002 00AF     		add	r7, sp, #0
 404              		.cfi_def_cfa_register 7
 114:BMP280.c      **** 	BMP280_writeRegister(BMP280_RST_REG, 0xB6);
 405              		.loc 1 114 0
 406 0004 B621     		movs	r1, #182
 407 0006 E020     		movs	r0, #224
 408 0008 FFF7FEFF 		bl	BMP280_writeRegister
 115:BMP280.c      **** 	
 116:BMP280.c      **** }
 409              		.loc 1 116 0
 410 000c 00BF     		nop
 411 000e 80BD     		pop	{r7, pc}
 412              		.cfi_endproc
 413              	.LFE59:
 414              		.size	BMP280_reset, .-BMP280_reset
 415              		.global	__aeabi_ldivmod
 416              		.global	__aeabi_l2f
 417              		.global	__aeabi_fdiv
 418              		.section	.text.BMP280_readFloatPressure,"ax",%progbits
 419              		.align	2
 420              		.global	BMP280_readFloatPressure
 421              		.thumb
 422              		.thumb_func
 423              		.type	BMP280_readFloatPressure, %function
 424              	BMP280_readFloatPressure:
 425              	.LFB60:
 117:BMP280.c      **** 
 118:BMP280.c      **** //****************************************************************************//
 119:BMP280.c      **** //
 120:BMP280.c      **** //  Pressure Section
 121:BMP280.c      **** //
 122:BMP280.c      **** //****************************************************************************//
 123:BMP280.c      **** float BMP280_readFloatPressure( void )
 124:BMP280.c      **** {
 426              		.loc 1 124 0
 427              		.cfi_startproc
 428              		@ args = 0, pretend = 0, frame = 136
 429              		@ frame_needed = 1, uses_anonymous_args = 0
 430 0000 2DE9B04F 		push	{r4, r5, r7, r8, r9, r10, fp, lr}
 431              		.cfi_def_cfa_offset 32
 432              		.cfi_offset 4, -32
 433              		.cfi_offset 5, -28
 434              		.cfi_offset 7, -24
 435              		.cfi_offset 8, -20
 436              		.cfi_offset 9, -16
 437              		.cfi_offset 10, -12
 438              		.cfi_offset 11, -8
 439              		.cfi_offset 14, -4
 440 0004 A2B0     		sub	sp, sp, #136
 441              		.cfi_def_cfa_offset 168
 442 0006 00AF     		add	r7, sp, #0
ARM GAS  C:\Users\Arisvis\AppData\Local\Temp\cc4xzKPt.s 			page 11


 443              		.cfi_def_cfa_register 7
 125:BMP280.c      **** 
 126:BMP280.c      **** 	// Returns pressure in Pa as unsigned 32 bit integer in Q24.8 format (24 integer bits and 8 fracti
 127:BMP280.c      **** 	// Output value of “24674867” represents 24674867/256 = 96386.2 Pa = 963.862 hPa
 128:BMP280.c      **** 	int32_t adc_P = ((uint32_t)BMP280_readRegister(BMP280_PRESSURE_MSB_REG) << 12) | ((uint32_t)BMP280
 444              		.loc 1 128 0
 445 0008 F720     		movs	r0, #247
 446 000a FFF7FEFF 		bl	BMP280_readRegister
 447 000e 0346     		mov	r3, r0
 448 0010 1C03     		lsls	r4, r3, #12
 449 0012 F820     		movs	r0, #248
 450 0014 FFF7FEFF 		bl	BMP280_readRegister
 451 0018 0346     		mov	r3, r0
 452 001a 1B01     		lsls	r3, r3, #4
 453 001c 1C43     		orrs	r4, r4, r3
 454 001e F920     		movs	r0, #249
 455 0020 FFF7FEFF 		bl	BMP280_readRegister
 456 0024 0346     		mov	r3, r0
 457 0026 1B09     		lsrs	r3, r3, #4
 458 0028 DBB2     		uxtb	r3, r3
 459 002a 03F00F03 		and	r3, r3, #15
 460 002e 2343     		orrs	r3, r3, r4
 461 0030 C7F88430 		str	r3, [r7, #132]
 129:BMP280.c      **** 	
 130:BMP280.c      **** 	int64_t var1, var2, p_acc;
 131:BMP280.c      **** 	var1 = ((int64_t) bmp280.t_fine) - 128000;
 462              		.loc 1 131 0
 463 0034 644B     		ldr	r3, .L11
 464 0036 1B6A     		ldr	r3, [r3, #32]
 465 0038 4FEAE374 		asr	r4, r3, #31
 466 003c B3F5FA33 		subs	r3, r3, #128000
 467 0040 44F1FF34 		adc	r4, r4, #-1
 468 0044 C7E91E34 		strd	r3, [r7, #120]
 132:BMP280.c      **** 	var2 = var1 * var1 * (int64_t) bmp280.calibration.dig_P6;
 469              		.loc 1 132 0
 470 0048 FA6F     		ldr	r2, [r7, #124]
 471 004a BB6F     		ldr	r3, [r7, #120]
 472 004c 03FB02F1 		mul	r1, r3, r2
 473 0050 FA6F     		ldr	r2, [r7, #124]
 474 0052 BB6F     		ldr	r3, [r7, #120]
 475 0054 03FB02F3 		mul	r3, r3, r2
 476 0058 CC18     		adds	r4, r1, r3
 477 005a BA6F     		ldr	r2, [r7, #120]
 478 005c BB6F     		ldr	r3, [r7, #120]
 479 005e A2FB0301 		umull	r0, r1, r2, r3
 480 0062 6318     		adds	r3, r4, r1
 481 0064 1946     		mov	r1, r3
 482 0066 584B     		ldr	r3, .L11
 483 0068 B3F91830 		ldrsh	r3, [r3, #24]
 484 006c 1BB2     		sxth	r3, r3
 485 006e 4FEAE374 		asr	r4, r3, #31
 486 0072 03FB01F5 		mul	r5, r3, r1
 487 0076 00FB04F2 		mul	r2, r0, r4
 488 007a 2A44     		add	r2, r2, r5
 489 007c A0FB0334 		umull	r3, r4, r0, r3
 490 0080 2244     		add	r2, r2, r4
 491 0082 1446     		mov	r4, r2
ARM GAS  C:\Users\Arisvis\AppData\Local\Temp\cc4xzKPt.s 			page 12


 492 0084 C7E91C34 		strd	r3, [r7, #112]
 493 0088 C7E91C34 		strd	r3, [r7, #112]
 133:BMP280.c      **** 	var2 = var2 + ((var1 * (int64_t) bmp280.calibration.dig_P5)<<17);
 494              		.loc 1 133 0
 495 008c 4E4B     		ldr	r3, .L11
 496 008e B3F91630 		ldrsh	r3, [r3, #22]
 497 0092 1BB2     		sxth	r3, r3
 498 0094 4FEAE374 		asr	r4, r3, #31
 499 0098 BA6F     		ldr	r2, [r7, #120]
 500 009a 04FB02F1 		mul	r1, r4, r2
 501 009e FA6F     		ldr	r2, [r7, #124]
 502 00a0 03FB02F2 		mul	r2, r3, r2
 503 00a4 1144     		add	r1, r1, r2
 504 00a6 BA6F     		ldr	r2, [r7, #120]
 505 00a8 A2FB0334 		umull	r3, r4, r2, r3
 506 00ac 0A19     		adds	r2, r1, r4
 507 00ae 1446     		mov	r4, r2
 508 00b0 4FEA4449 		lsl	r9, r4, #17
 509 00b4 49EAD339 		orr	r9, r9, r3, lsr #15
 510 00b8 4FEA4348 		lsl	r8, r3, #17
 511 00bc D7E91C34 		ldrd	r3, [r7, #112]
 512 00c0 13EB0803 		adds	r3, r3, r8
 513 00c4 44EB0904 		adc	r4, r4, r9
 514 00c8 C7E91C34 		strd	r3, [r7, #112]
 134:BMP280.c      **** 	var2 = var2 + (((int64_t) bmp280.calibration.dig_P4)<<35);
 515              		.loc 1 134 0
 516 00cc 3E4B     		ldr	r3, .L11
 517 00ce B3F91430 		ldrsh	r3, [r3, #20]
 518 00d2 1BB2     		sxth	r3, r3
 519 00d4 4FEAE374 		asr	r4, r3, #31
 520 00d8 DB00     		lsls	r3, r3, #3
 521 00da FB60     		str	r3, [r7, #12]
 522 00dc 0023     		movs	r3, #0
 523 00de BB60     		str	r3, [r7, #8]
 524 00e0 D7E91C34 		ldrd	r3, [r7, #112]
 525 00e4 D7E90212 		ldrd	r1, [r7, #8]
 526 00e8 C918     		adds	r1, r1, r3
 527 00ea 42EB0402 		adc	r2, r2, r4
 528 00ee 0B46     		mov	r3, r1
 529 00f0 1446     		mov	r4, r2
 530 00f2 C7E91C34 		strd	r3, [r7, #112]
 135:BMP280.c      **** 	var1 = ((var1 * var1 * (int64_t) bmp280.calibration.dig_P3)>>8) + ((var1 * (int64_t) bmp280.calibr
 531              		.loc 1 135 0
 532 00f6 FA6F     		ldr	r2, [r7, #124]
 533 00f8 BB6F     		ldr	r3, [r7, #120]
 534 00fa 03FB02F1 		mul	r1, r3, r2
 535 00fe FA6F     		ldr	r2, [r7, #124]
 536 0100 BB6F     		ldr	r3, [r7, #120]
 537 0102 03FB02F3 		mul	r3, r3, r2
 538 0106 CC18     		adds	r4, r1, r3
 539 0108 BA6F     		ldr	r2, [r7, #120]
 540 010a BB6F     		ldr	r3, [r7, #120]
 541 010c A2FB0301 		umull	r0, r1, r2, r3
 542 0110 6318     		adds	r3, r4, r1
 543 0112 1946     		mov	r1, r3
 544 0114 2C4B     		ldr	r3, .L11
 545 0116 B3F91230 		ldrsh	r3, [r3, #18]
ARM GAS  C:\Users\Arisvis\AppData\Local\Temp\cc4xzKPt.s 			page 13


 546 011a 1BB2     		sxth	r3, r3
 547 011c 4FEAE374 		asr	r4, r3, #31
 548 0120 03FB01F5 		mul	r5, r3, r1
 549 0124 00FB04F2 		mul	r2, r0, r4
 550 0128 2A44     		add	r2, r2, r5
 551 012a A0FB0334 		umull	r3, r4, r0, r3
 552 012e 2244     		add	r2, r2, r4
 553 0130 1446     		mov	r4, r2
 554 0132 1A0A     		lsrs	r2, r3, #8
 555 0134 3A66     		str	r2, [r7, #96]
 556 0136 3A6E     		ldr	r2, [r7, #96]
 557 0138 42EA0462 		orr	r2, r2, r4, lsl #24
 558 013c 3A66     		str	r2, [r7, #96]
 559 013e 2312     		asrs	r3, r4, #8
 560 0140 7B66     		str	r3, [r7, #100]
 561 0142 214B     		ldr	r3, .L11
 562 0144 B3F91030 		ldrsh	r3, [r3, #16]
 563 0148 1BB2     		sxth	r3, r3
 564 014a 4FEAE374 		asr	r4, r3, #31
 565 014e BA6F     		ldr	r2, [r7, #120]
 566 0150 04FB02F1 		mul	r1, r4, r2
 567 0154 FA6F     		ldr	r2, [r7, #124]
 568 0156 03FB02F2 		mul	r2, r3, r2
 569 015a 1144     		add	r1, r1, r2
 570 015c BA6F     		ldr	r2, [r7, #120]
 571 015e A2FB0334 		umull	r3, r4, r2, r3
 572 0162 0A19     		adds	r2, r1, r4
 573 0164 1446     		mov	r4, r2
 574 0166 4FEA043B 		lsl	fp, r4, #12
 575 016a 4BEA135B 		orr	fp, fp, r3, lsr #20
 576 016e 4FEA033A 		lsl	r10, r3, #12
 577 0172 D7E91834 		ldrd	r3, [r7, #96]
 578 0176 13EB0A03 		adds	r3, r3, r10
 579 017a 44EB0B04 		adc	r4, r4, fp
 580 017e C7E91E34 		strd	r3, [r7, #120]
 136:BMP280.c      **** 	var1 = (((((int64_t)1)<<47)+var1))*((int64_t) bmp280.calibration.dig_P1)>>33;
 581              		.loc 1 136 0
 582 0182 D7E91E34 		ldrd	r3, [r7, #120]
 583 0186 191C     		adds	r1, r3, #0
 584 0188 44F50042 		adc	r2, r4, #32768
 585 018c 0E4B     		ldr	r3, .L11
 586 018e DB89     		ldrh	r3, [r3, #14]
 587 0190 9BB2     		uxth	r3, r3
 588 0192 4FF00004 		mov	r4, #0
 589 0196 03FB02F5 		mul	r5, r3, r2
 590 019a 01FB04F0 		mul	r0, r1, r4
 591 019e 2844     		add	r0, r0, r5
 592 01a0 A1FB0334 		umull	r3, r4, r1, r3
 593 01a4 0219     		adds	r2, r0, r4
 594 01a6 1446     		mov	r4, r2
 595 01a8 6210     		asrs	r2, r4, #1
 596 01aa 3A60     		str	r2, [r7]
 597 01ac E317     		asrs	r3, r4, #31
 598 01ae 7B60     		str	r3, [r7, #4]
 599 01b0 D7E90034 		ldrd	r3, [r7]
 600 01b4 C7E91E34 		strd	r3, [r7, #120]
 137:BMP280.c      **** 	if (var1 == 0)
ARM GAS  C:\Users\Arisvis\AppData\Local\Temp\cc4xzKPt.s 			page 14


 601              		.loc 1 137 0
 602 01b8 D7E91E34 		ldrd	r3, [r7, #120]
 603 01bc 2343     		orrs	r3, r3, r4
 604 01be 05D1     		bne	.L9
 138:BMP280.c      **** 	{
 139:BMP280.c      **** 		return 0; // avoid exception caused by division by zero
 605              		.loc 1 139 0
 606 01c0 4FF00003 		mov	r3, #0
 607 01c4 F3E0     		b	.L10
 608              	.L12:
 609 01c6 00BF     		.align	2
 610              	.L11:
 611 01c8 00000000 		.word	bmp280
 612              	.L9:
 140:BMP280.c      **** 	}
 141:BMP280.c      **** 	p_acc = 1048576 - adc_P;
 613              		.loc 1 141 0
 614 01cc D7F88430 		ldr	r3, [r7, #132]
 615 01d0 C3F58013 		rsb	r3, r3, #1048576
 616 01d4 4FEAE374 		asr	r4, r3, #31
 617 01d8 C7E91A34 		strd	r3, [r7, #104]
 142:BMP280.c      **** 	p_acc = (((p_acc<<31) - var2)*3125)/var1;
 618              		.loc 1 142 0
 619 01dc D7E91A34 		ldrd	r3, [r7, #104]
 620 01e0 E207     		lsls	r2, r4, #31
 621 01e2 FA65     		str	r2, [r7, #92]
 622 01e4 FA6D     		ldr	r2, [r7, #92]
 623 01e6 42EA5302 		orr	r2, r2, r3, lsr #1
 624 01ea FA65     		str	r2, [r7, #92]
 625 01ec DB07     		lsls	r3, r3, #31
 626 01ee BB65     		str	r3, [r7, #88]
 627 01f0 D7E91C34 		ldrd	r3, [r7, #112]
 628 01f4 D7E91612 		ldrd	r1, [r7, #88]
 629 01f8 C91A     		subs	r1, r1, r3
 630 01fa 62EB0402 		sbc	r2, r2, r4
 631 01fe 0B46     		mov	r3, r1
 632 0200 1446     		mov	r4, r2
 633 0202 DB18     		adds	r3, r3, r3
 634 0204 44EB0404 		adc	r4, r4, r4
 635 0208 5B18     		adds	r3, r3, r1
 636 020a 44EB0204 		adc	r4, r4, r2
 637 020e A001     		lsls	r0, r4, #6
 638 0210 7863     		str	r0, [r7, #52]
 639 0212 786B     		ldr	r0, [r7, #52]
 640 0214 40EA9360 		orr	r0, r0, r3, lsr #26
 641 0218 7863     		str	r0, [r7, #52]
 642 021a 9801     		lsls	r0, r3, #6
 643 021c 3863     		str	r0, [r7, #48]
 644 021e D7E90C89 		ldrd	r8, [r7, #48]
 645 0222 18EB0308 		adds	r8, r8, r3
 646 0226 49EB0409 		adc	r9, r9, r4
 647 022a 4346     		mov	r3, r8
 648 022c 4C46     		mov	r4, r9
 649 022e A000     		lsls	r0, r4, #2
 650 0230 F862     		str	r0, [r7, #44]
 651 0232 F86A     		ldr	r0, [r7, #44]
 652 0234 40EA9370 		orr	r0, r0, r3, lsr #30
ARM GAS  C:\Users\Arisvis\AppData\Local\Temp\cc4xzKPt.s 			page 15


 653 0238 F862     		str	r0, [r7, #44]
 654 023a 9B00     		lsls	r3, r3, #2
 655 023c BB62     		str	r3, [r7, #40]
 656 023e D7E90A34 		ldrd	r3, [r7, #40]
 657 0242 5B18     		adds	r3, r3, r1
 658 0244 44EB0204 		adc	r4, r4, r2
 659 0248 A000     		lsls	r0, r4, #2
 660 024a 7862     		str	r0, [r7, #36]
 661 024c 786A     		ldr	r0, [r7, #36]
 662 024e 40EA9370 		orr	r0, r0, r3, lsr #30
 663 0252 7862     		str	r0, [r7, #36]
 664 0254 9B00     		lsls	r3, r3, #2
 665 0256 3B62     		str	r3, [r7, #32]
 666 0258 D7E90834 		ldrd	r3, [r7, #32]
 667 025c 13EB0108 		adds	r8, r3, r1
 668 0260 44EB0209 		adc	r9, r4, r2
 669 0264 4046     		mov	r0, r8
 670 0266 4946     		mov	r1, r9
 671 0268 D7E91E23 		ldrd	r2, [r7, #120]
 672 026c FFF7FEFF 		bl	__aeabi_ldivmod
 673 0270 0346     		mov	r3, r0
 674 0272 0C46     		mov	r4, r1
 675 0274 C7E91A34 		strd	r3, [r7, #104]
 143:BMP280.c      **** 	var1 = (((int64_t) bmp280.calibration.dig_P9) * (p_acc>>13) * (p_acc>>13)) >> 25;
 676              		.loc 1 143 0
 677 0278 4F4B     		ldr	r3, .L13
 678 027a B3F91E30 		ldrsh	r3, [r3, #30]
 679 027e 18B2     		sxth	r0, r3
 680 0280 4FEAE071 		asr	r1, r0, #31
 681 0284 D7E91A34 		ldrd	r3, [r7, #104]
 682 0288 5A0B     		lsrs	r2, r3, #13
 683 028a 3A65     		str	r2, [r7, #80]
 684 028c 3A6D     		ldr	r2, [r7, #80]
 685 028e 42EAC442 		orr	r2, r2, r4, lsl #19
 686 0292 3A65     		str	r2, [r7, #80]
 687 0294 6313     		asrs	r3, r4, #13
 688 0296 7B65     		str	r3, [r7, #84]
 689 0298 D7E91445 		ldrd	r4, [r7, #80]
 690 029c 2346     		mov	r3, r4
 691 029e 03FB01F2 		mul	r2, r3, r1
 692 02a2 2B46     		mov	r3, r5
 693 02a4 00FB03F3 		mul	r3, r0, r3
 694 02a8 1A44     		add	r2, r2, r3
 695 02aa 2346     		mov	r3, r4
 696 02ac A0FB0334 		umull	r3, r4, r0, r3
 697 02b0 2244     		add	r2, r2, r4
 698 02b2 1446     		mov	r4, r2
 699 02b4 D7E91A12 		ldrd	r1, [r7, #104]
 700 02b8 480B     		lsrs	r0, r1, #13
 701 02ba B864     		str	r0, [r7, #72]
 702 02bc B86C     		ldr	r0, [r7, #72]
 703 02be 40EAC240 		orr	r0, r0, r2, lsl #19
 704 02c2 B864     		str	r0, [r7, #72]
 705 02c4 5213     		asrs	r2, r2, #13
 706 02c6 FA64     		str	r2, [r7, #76]
 707 02c8 D7E91289 		ldrd	r8, [r7, #72]
 708 02cc 4246     		mov	r2, r8
ARM GAS  C:\Users\Arisvis\AppData\Local\Temp\cc4xzKPt.s 			page 16


 709 02ce 02FB04F1 		mul	r1, r2, r4
 710 02d2 4A46     		mov	r2, r9
 711 02d4 03FB02F2 		mul	r2, r3, r2
 712 02d8 0A44     		add	r2, r2, r1
 713 02da 4146     		mov	r1, r8
 714 02dc A3FB0134 		umull	r3, r4, r3, r1
 715 02e0 2244     		add	r2, r2, r4
 716 02e2 1446     		mov	r4, r2
 717 02e4 5A0E     		lsrs	r2, r3, #25
 718 02e6 BA61     		str	r2, [r7, #24]
 719 02e8 BA69     		ldr	r2, [r7, #24]
 720 02ea 42EAC412 		orr	r2, r2, r4, lsl #7
 721 02ee BA61     		str	r2, [r7, #24]
 722 02f0 6316     		asrs	r3, r4, #25
 723 02f2 FB61     		str	r3, [r7, #28]
 724 02f4 D7E90634 		ldrd	r3, [r7, #24]
 725 02f8 C7E91E34 		strd	r3, [r7, #120]
 144:BMP280.c      **** 	var2 = (((int64_t) bmp280.calibration.dig_P8) * p_acc) >> 19;
 726              		.loc 1 144 0
 727 02fc 2E4B     		ldr	r3, .L13
 728 02fe B3F91C30 		ldrsh	r3, [r3, #28]
 729 0302 1BB2     		sxth	r3, r3
 730 0304 4FEAE374 		asr	r4, r3, #31
 731 0308 BA6E     		ldr	r2, [r7, #104]
 732 030a 04FB02F1 		mul	r1, r4, r2
 733 030e FA6E     		ldr	r2, [r7, #108]
 734 0310 03FB02F2 		mul	r2, r3, r2
 735 0314 0A44     		add	r2, r2, r1
 736 0316 B96E     		ldr	r1, [r7, #104]
 737 0318 A1FB0334 		umull	r3, r4, r1, r3
 738 031c 2244     		add	r2, r2, r4
 739 031e 1446     		mov	r4, r2
 740 0320 DA0C     		lsrs	r2, r3, #19
 741 0322 3A61     		str	r2, [r7, #16]
 742 0324 3A69     		ldr	r2, [r7, #16]
 743 0326 42EA4432 		orr	r2, r2, r4, lsl #13
 744 032a 3A61     		str	r2, [r7, #16]
 745 032c E314     		asrs	r3, r4, #19
 746 032e 7B61     		str	r3, [r7, #20]
 747 0330 D7E90434 		ldrd	r3, [r7, #16]
 748 0334 C7E91C34 		strd	r3, [r7, #112]
 145:BMP280.c      **** 	p_acc = ((p_acc + var1 + var2) >> 8) + (((int64_t) bmp280.calibration.dig_P7)<<4);
 749              		.loc 1 145 0
 750 0338 D7E91A12 		ldrd	r1, [r7, #104]
 751 033c D7E91E34 		ldrd	r3, [r7, #120]
 752 0340 C918     		adds	r1, r1, r3
 753 0342 42EB0402 		adc	r2, r2, r4
 754 0346 D7E91C34 		ldrd	r3, [r7, #112]
 755 034a 5B18     		adds	r3, r3, r1
 756 034c 44EB0204 		adc	r4, r4, r2
 757 0350 1A0A     		lsrs	r2, r3, #8
 758 0352 3A64     		str	r2, [r7, #64]
 759 0354 3A6C     		ldr	r2, [r7, #64]
 760 0356 42EA0462 		orr	r2, r2, r4, lsl #24
 761 035a 3A64     		str	r2, [r7, #64]
 762 035c 2312     		asrs	r3, r4, #8
 763 035e 7B64     		str	r3, [r7, #68]
ARM GAS  C:\Users\Arisvis\AppData\Local\Temp\cc4xzKPt.s 			page 17


 764 0360 154B     		ldr	r3, .L13
 765 0362 B3F91A30 		ldrsh	r3, [r3, #26]
 766 0366 1BB2     		sxth	r3, r3
 767 0368 4FEAE374 		asr	r4, r3, #31
 768 036c 2201     		lsls	r2, r4, #4
 769 036e FA63     		str	r2, [r7, #60]
 770 0370 FA6B     		ldr	r2, [r7, #60]
 771 0372 42EA1372 		orr	r2, r2, r3, lsr #28
 772 0376 FA63     		str	r2, [r7, #60]
 773 0378 1B01     		lsls	r3, r3, #4
 774 037a BB63     		str	r3, [r7, #56]
 775 037c D7E91034 		ldrd	r3, [r7, #64]
 776 0380 D7E90E12 		ldrd	r1, [r7, #56]
 777 0384 5B18     		adds	r3, r3, r1
 778 0386 44EB0204 		adc	r4, r4, r2
 779 038a C7E91A34 		strd	r3, [r7, #104]
 146:BMP280.c      **** 	
 147:BMP280.c      ****     bmp280.press_Pa = (float)p_acc / 256.0;
 780              		.loc 1 147 0
 781 038e D7E91A01 		ldrd	r0, [r7, #104]
 782 0392 FFF7FEFF 		bl	__aeabi_l2f
 783 0396 0346     		mov	r3, r0
 784 0398 4FF08741 		mov	r1, #1132462080
 785 039c 1846     		mov	r0, r3
 786 039e FFF7FEFF 		bl	__aeabi_fdiv
 787 03a2 0346     		mov	r3, r0
 788 03a4 1A46     		mov	r2, r3
 789 03a6 044B     		ldr	r3, .L13
 790 03a8 9A62     		str	r2, [r3, #40]	@ float
 148:BMP280.c      ****     return bmp280.press_Pa;
 791              		.loc 1 148 0
 792 03aa 034B     		ldr	r3, .L13
 793 03ac 9B6A     		ldr	r3, [r3, #40]	@ float
 794              	.L10:
 149:BMP280.c      **** 	
 150:BMP280.c      **** }
 795              		.loc 1 150 0
 796 03ae 1846     		mov	r0, r3
 797 03b0 8837     		adds	r7, r7, #136
 798              		.cfi_def_cfa_offset 32
 799 03b2 BD46     		mov	sp, r7
 800              		.cfi_def_cfa_register 13
 801              		@ sp needed
 802 03b4 BDE8B08F 		pop	{r4, r5, r7, r8, r9, r10, fp, pc}
 803              	.L14:
 804              		.align	2
 805              	.L13:
 806 03b8 00000000 		.word	bmp280
 807              		.cfi_endproc
 808              	.LFE60:
 809              		.size	BMP280_readFloatPressure, .-BMP280_readFloatPressure
 810              		.global	__aeabi_f2d
 811              		.global	__aeabi_dsub
 812              		.global	__aeabi_dmul
 813              		.global	__aeabi_d2f
 814              		.section	.text.BMP280_readFloatAltitudeMeters,"ax",%progbits
 815              		.align	2
ARM GAS  C:\Users\Arisvis\AppData\Local\Temp\cc4xzKPt.s 			page 18


 816              		.global	BMP280_readFloatAltitudeMeters
 817              		.thumb
 818              		.thumb_func
 819              		.type	BMP280_readFloatAltitudeMeters, %function
 820              	BMP280_readFloatAltitudeMeters:
 821              	.LFB61:
 151:BMP280.c      **** 
 152:BMP280.c      **** float BMP280_readFloatAltitudeMeters( void )
 153:BMP280.c      **** {
 822              		.loc 1 153 0
 823              		.cfi_startproc
 824              		@ args = 0, pretend = 0, frame = 8
 825              		@ frame_needed = 1, uses_anonymous_args = 0
 826 0000 90B5     		push	{r4, r7, lr}
 827              		.cfi_def_cfa_offset 12
 828              		.cfi_offset 4, -12
 829              		.cfi_offset 7, -8
 830              		.cfi_offset 14, -4
 831 0002 83B0     		sub	sp, sp, #12
 832              		.cfi_def_cfa_offset 24
 833 0004 00AF     		add	r7, sp, #0
 834              		.cfi_def_cfa_register 7
 154:BMP280.c      **** 	float heightOutput = 0;
 835              		.loc 1 154 0
 836 0006 4FF00003 		mov	r3, #0
 837 000a 7B60     		str	r3, [r7, #4]	@ float
 155:BMP280.c      **** 	
 156:BMP280.c      **** 	heightOutput = ((float)-45846.2)*(pow(((float) BMP280_readFloatPressure()/(float) P_SURFACE), 0.19
 838              		.loc 1 156 0
 839 000c FFF7FEFF 		bl	BMP280_readFloatPressure
 840 0010 0346     		mov	r3, r0
 841 0012 1949     		ldr	r1, .L17+16
 842 0014 1846     		mov	r0, r3
 843 0016 FFF7FEFF 		bl	__aeabi_fdiv
 844 001a 0346     		mov	r3, r0
 845 001c 1846     		mov	r0, r3
 846 001e FFF7FEFF 		bl	__aeabi_f2d
 847 0022 11A3     		adr	r3, .L17
 848 0024 D3E90023 		ldrd	r2, [r3]
 849 0028 FFF7FEFF 		bl	pow
 850 002c 4FF00002 		mov	r2, #0
 851 0030 124B     		ldr	r3, .L17+20
 852 0032 FFF7FEFF 		bl	__aeabi_dsub
 853 0036 0346     		mov	r3, r0
 854 0038 0C46     		mov	r4, r1
 855 003a 1846     		mov	r0, r3
 856 003c 2146     		mov	r1, r4
 857 003e 0CA3     		adr	r3, .L17+8
 858 0040 D3E90023 		ldrd	r2, [r3]
 859 0044 FFF7FEFF 		bl	__aeabi_dmul
 860 0048 0346     		mov	r3, r0
 861 004a 0C46     		mov	r4, r1
 862 004c 1846     		mov	r0, r3
 863 004e 2146     		mov	r1, r4
 864 0050 FFF7FEFF 		bl	__aeabi_d2f
 865 0054 0346     		mov	r3, r0
 866 0056 7B60     		str	r3, [r7, #4]	@ float
ARM GAS  C:\Users\Arisvis\AppData\Local\Temp\cc4xzKPt.s 			page 19


 157:BMP280.c      **** 	return heightOutput;
 867              		.loc 1 157 0
 868 0058 7B68     		ldr	r3, [r7, #4]	@ float
 158:BMP280.c      **** 	
 159:BMP280.c      **** }
 869              		.loc 1 159 0
 870 005a 1846     		mov	r0, r3
 871 005c 0C37     		adds	r7, r7, #12
 872              		.cfi_def_cfa_offset 12
 873 005e BD46     		mov	sp, r7
 874              		.cfi_def_cfa_register 13
 875              		@ sp needed
 876 0060 90BD     		pop	{r4, r7, pc}
 877              	.L18:
 878 0062 00BFAFF3 		.align	3
 878      0080
 879              	.L17:
 880 0068 C5C551B9 		.word	-1185823291
 881 006c 895AC83F 		.word	1070094985
 882 0070 00000060 		.word	1610612736
 883 0074 C662E6C0 		.word	-1058643258
 884 0078 80E6C547 		.word	1204151936
 885 007c 0000F03F 		.word	1072693248
 886              		.cfi_endproc
 887              	.LFE61:
 888              		.size	BMP280_readFloatAltitudeMeters, .-BMP280_readFloatAltitudeMeters
 889              		.section	.text.BMP280_readFloatAltitudeFeet,"ax",%progbits
 890              		.align	2
 891              		.global	BMP280_readFloatAltitudeFeet
 892              		.thumb
 893              		.thumb_func
 894              		.type	BMP280_readFloatAltitudeFeet, %function
 895              	BMP280_readFloatAltitudeFeet:
 896              	.LFB62:
 160:BMP280.c      **** 
 161:BMP280.c      **** float BMP280_readFloatAltitudeFeet( void )
 162:BMP280.c      **** {
 897              		.loc 1 162 0
 898              		.cfi_startproc
 899              		@ args = 0, pretend = 0, frame = 8
 900              		@ frame_needed = 1, uses_anonymous_args = 0
 901 0000 90B5     		push	{r4, r7, lr}
 902              		.cfi_def_cfa_offset 12
 903              		.cfi_offset 4, -12
 904              		.cfi_offset 7, -8
 905              		.cfi_offset 14, -4
 906 0002 83B0     		sub	sp, sp, #12
 907              		.cfi_def_cfa_offset 24
 908 0004 00AF     		add	r7, sp, #0
 909              		.cfi_def_cfa_register 7
 163:BMP280.c      **** 	float heightOutput = 0;
 910              		.loc 1 163 0
 911 0006 4FF00003 		mov	r3, #0
 912 000a 7B60     		str	r3, [r7, #4]	@ float
 164:BMP280.c      **** 	
 165:BMP280.c      **** 	heightOutput = BMP280_readFloatAltitudeMeters() * 3.28084;
 913              		.loc 1 165 0
ARM GAS  C:\Users\Arisvis\AppData\Local\Temp\cc4xzKPt.s 			page 20


 914 000c FFF7FEFF 		bl	BMP280_readFloatAltitudeMeters
 915 0010 0346     		mov	r3, r0
 916 0012 1846     		mov	r0, r3
 917 0014 FFF7FEFF 		bl	__aeabi_f2d
 918 0018 09A3     		adr	r3, .L21
 919 001a D3E90023 		ldrd	r2, [r3]
 920 001e FFF7FEFF 		bl	__aeabi_dmul
 921 0022 0346     		mov	r3, r0
 922 0024 0C46     		mov	r4, r1
 923 0026 1846     		mov	r0, r3
 924 0028 2146     		mov	r1, r4
 925 002a FFF7FEFF 		bl	__aeabi_d2f
 926 002e 0346     		mov	r3, r0
 927 0030 7B60     		str	r3, [r7, #4]	@ float
 166:BMP280.c      **** 	return heightOutput;
 928              		.loc 1 166 0
 929 0032 7B68     		ldr	r3, [r7, #4]	@ float
 167:BMP280.c      **** 	
 168:BMP280.c      **** }
 930              		.loc 1 168 0
 931 0034 1846     		mov	r0, r3
 932 0036 0C37     		adds	r7, r7, #12
 933              		.cfi_def_cfa_offset 12
 934 0038 BD46     		mov	sp, r7
 935              		.cfi_def_cfa_register 13
 936              		@ sp needed
 937 003a 90BD     		pop	{r4, r7, pc}
 938              	.L22:
 939 003c AFF30080 		.align	3
 940              	.L21:
 941 0040 E544BB0A 		.word	180045029
 942 0044 293F0A40 		.word	1074413353
 943              		.cfi_endproc
 944              	.LFE62:
 945              		.size	BMP280_readFloatAltitudeFeet, .-BMP280_readFloatAltitudeFeet
 946              		.global	__aeabi_i2f
 947              		.section	.text.BMP280_readTempC,"ax",%progbits
 948              		.align	2
 949              		.global	BMP280_readTempC
 950              		.thumb
 951              		.thumb_func
 952              		.type	BMP280_readTempC, %function
 953              	BMP280_readTempC:
 954              	.LFB63:
 169:BMP280.c      **** 
 170:BMP280.c      **** 
 171:BMP280.c      **** 
 172:BMP280.c      **** 
 173:BMP280.c      **** //****************************************************************************//
 174:BMP280.c      **** //
 175:BMP280.c      **** //  Temperature Section
 176:BMP280.c      **** //
 177:BMP280.c      **** //****************************************************************************//
 178:BMP280.c      **** 
 179:BMP280.c      **** float BMP280_readTempC( void )
 180:BMP280.c      **** {
 955              		.loc 1 180 0
ARM GAS  C:\Users\Arisvis\AppData\Local\Temp\cc4xzKPt.s 			page 21


 956              		.cfi_startproc
 957              		@ args = 0, pretend = 0, frame = 32
 958              		@ frame_needed = 1, uses_anonymous_args = 0
 959 0000 90B5     		push	{r4, r7, lr}
 960              		.cfi_def_cfa_offset 12
 961              		.cfi_offset 4, -12
 962              		.cfi_offset 7, -8
 963              		.cfi_offset 14, -4
 964 0002 89B0     		sub	sp, sp, #36
 965              		.cfi_def_cfa_offset 48
 966 0004 00AF     		add	r7, sp, #0
 967              		.cfi_def_cfa_register 7
 181:BMP280.c      **** 	// Returns temperature in DegC, resolution is 0.01 DegC. Output value of “5123” equals 51.23 D
 182:BMP280.c      **** 	// t_fine carries fine temperature as global value
 183:BMP280.c      **** 
 184:BMP280.c      **** 	//get the reading (adc_T);
 185:BMP280.c      **** 	int32_t adc_T = ((uint32_t)BMP280_readRegister(BMP280_TEMPERATURE_MSB_REG) << 12) | ((uint32_t)BMP
 968              		.loc 1 185 0
 969 0006 FA20     		movs	r0, #250
 970 0008 FFF7FEFF 		bl	BMP280_readRegister
 971 000c 0346     		mov	r3, r0
 972 000e 1C03     		lsls	r4, r3, #12
 973 0010 FB20     		movs	r0, #251
 974 0012 FFF7FEFF 		bl	BMP280_readRegister
 975 0016 0346     		mov	r3, r0
 976 0018 1B01     		lsls	r3, r3, #4
 977 001a 1C43     		orrs	r4, r4, r3
 978 001c FC20     		movs	r0, #252
 979 001e FFF7FEFF 		bl	BMP280_readRegister
 980 0022 0346     		mov	r3, r0
 981 0024 1B09     		lsrs	r3, r3, #4
 982 0026 DBB2     		uxtb	r3, r3
 983 0028 03F00F03 		and	r3, r3, #15
 984 002c 2343     		orrs	r3, r3, r4
 985 002e FB61     		str	r3, [r7, #28]
 186:BMP280.c      **** 
 187:BMP280.c      **** 	//By datasheet, calibrate
 188:BMP280.c      **** 	int64_t var1, var2;
 189:BMP280.c      **** 
 190:BMP280.c      **** 	var1 = ((((adc_T>>3) - ((int32_t)bmp280.calibration.dig_T1<<1))) * ((int32_t)bmp280.calibration.di
 986              		.loc 1 190 0
 987 0030 FB69     		ldr	r3, [r7, #28]
 988 0032 DA10     		asrs	r2, r3, #3
 989 0034 224B     		ldr	r3, .L25
 990 0036 1B89     		ldrh	r3, [r3, #8]
 991 0038 5B00     		lsls	r3, r3, #1
 992 003a D31A     		subs	r3, r2, r3
 993 003c 204A     		ldr	r2, .L25
 994 003e B2F90A20 		ldrsh	r2, [r2, #10]
 995 0042 02FB03F3 		mul	r3, r2, r3
 996 0046 DB12     		asrs	r3, r3, #11
 997 0048 4FEAE374 		asr	r4, r3, #31
 998 004c C7E90434 		strd	r3, [r7, #16]
 191:BMP280.c      **** 	var2 = (((((adc_T>>4) - ((int32_t)bmp280.calibration.dig_T1)) * ((adc_T>>4) - ((int32_t)bmp280.cal
 999              		.loc 1 191 0
 1000 0050 FB69     		ldr	r3, [r7, #28]
 1001 0052 1B11     		asrs	r3, r3, #4
ARM GAS  C:\Users\Arisvis\AppData\Local\Temp\cc4xzKPt.s 			page 22


 1002 0054 1A4A     		ldr	r2, .L25
 1003 0056 1289     		ldrh	r2, [r2, #8]
 1004 0058 9B1A     		subs	r3, r3, r2
 1005 005a FA69     		ldr	r2, [r7, #28]
 1006 005c 1211     		asrs	r2, r2, #4
 1007 005e 1849     		ldr	r1, .L25
 1008 0060 0989     		ldrh	r1, [r1, #8]
 1009 0062 521A     		subs	r2, r2, r1
 1010 0064 02FB03F3 		mul	r3, r2, r3
 1011 0068 1B13     		asrs	r3, r3, #12
 1012 006a 154A     		ldr	r2, .L25
 1013 006c B2F90C20 		ldrsh	r2, [r2, #12]
 1014 0070 02FB03F3 		mul	r3, r2, r3
 1015 0074 9B13     		asrs	r3, r3, #14
 1016 0076 4FEAE374 		asr	r4, r3, #31
 1017 007a C7E90234 		strd	r3, [r7, #8]
 192:BMP280.c      **** 	
 193:BMP280.c      ****     bmp280.t_fine = var1 + var2;
 1018              		.loc 1 193 0
 1019 007e 3A69     		ldr	r2, [r7, #16]
 1020 0080 BB68     		ldr	r3, [r7, #8]
 1021 0082 1344     		add	r3, r3, r2
 1022 0084 1A46     		mov	r2, r3
 1023 0086 0E4B     		ldr	r3, .L25
 1024 0088 1A62     		str	r2, [r3, #32]
 194:BMP280.c      **** 	float output = (bmp280.t_fine * 5 + 128) >> 8;
 1025              		.loc 1 194 0
 1026 008a 0D4B     		ldr	r3, .L25
 1027 008c 1A6A     		ldr	r2, [r3, #32]
 1028 008e 1346     		mov	r3, r2
 1029 0090 9B00     		lsls	r3, r3, #2
 1030 0092 1344     		add	r3, r3, r2
 1031 0094 8033     		adds	r3, r3, #128
 1032 0096 1B12     		asrs	r3, r3, #8
 1033 0098 1846     		mov	r0, r3
 1034 009a FFF7FEFF 		bl	__aeabi_i2f
 1035 009e 0346     		mov	r3, r0
 1036 00a0 7B60     		str	r3, [r7, #4]	@ float
 195:BMP280.c      **** 
 196:BMP280.c      **** 	output = output / 100;
 1037              		.loc 1 196 0
 1038 00a2 0849     		ldr	r1, .L25+4
 1039 00a4 7868     		ldr	r0, [r7, #4]	@ float
 1040 00a6 FFF7FEFF 		bl	__aeabi_fdiv
 1041 00aa 0346     		mov	r3, r0
 1042 00ac 7B60     		str	r3, [r7, #4]	@ float
 197:BMP280.c      **** 	
 198:BMP280.c      ****     bmp280.temp_C = output;
 1043              		.loc 1 198 0
 1044 00ae 044A     		ldr	r2, .L25
 1045 00b0 7B68     		ldr	r3, [r7, #4]	@ float
 1046 00b2 5362     		str	r3, [r2, #36]	@ float
 199:BMP280.c      **** 	return bmp280.temp_C;
 1047              		.loc 1 199 0
 1048 00b4 024B     		ldr	r3, .L25
 1049 00b6 5B6A     		ldr	r3, [r3, #36]	@ float
 200:BMP280.c      **** }
ARM GAS  C:\Users\Arisvis\AppData\Local\Temp\cc4xzKPt.s 			page 23


 1050              		.loc 1 200 0
 1051 00b8 1846     		mov	r0, r3
 1052 00ba 2437     		adds	r7, r7, #36
 1053              		.cfi_def_cfa_offset 12
 1054 00bc BD46     		mov	sp, r7
 1055              		.cfi_def_cfa_register 13
 1056              		@ sp needed
 1057 00be 90BD     		pop	{r4, r7, pc}
 1058              	.L26:
 1059              		.align	2
 1060              	.L25:
 1061 00c0 00000000 		.word	bmp280
 1062 00c4 0000C842 		.word	1120403456
 1063              		.cfi_endproc
 1064              	.LFE63:
 1065              		.size	BMP280_readTempC, .-BMP280_readTempC
 1066              		.global	__aeabi_fmul
 1067              		.global	__aeabi_fadd
 1068              		.section	.text.BMP280_readTempF,"ax",%progbits
 1069              		.align	2
 1070              		.global	BMP280_readTempF
 1071              		.thumb
 1072              		.thumb_func
 1073              		.type	BMP280_readTempF, %function
 1074              	BMP280_readTempF:
 1075              	.LFB64:
 201:BMP280.c      **** 
 202:BMP280.c      **** float BMP280_readTempF( void )
 203:BMP280.c      **** {
 1076              		.loc 1 203 0
 1077              		.cfi_startproc
 1078              		@ args = 0, pretend = 0, frame = 8
 1079              		@ frame_needed = 1, uses_anonymous_args = 0
 1080 0000 80B5     		push	{r7, lr}
 1081              		.cfi_def_cfa_offset 8
 1082              		.cfi_offset 7, -8
 1083              		.cfi_offset 14, -4
 1084 0002 82B0     		sub	sp, sp, #8
 1085              		.cfi_def_cfa_offset 16
 1086 0004 00AF     		add	r7, sp, #0
 1087              		.cfi_def_cfa_register 7
 204:BMP280.c      **** 	float output = BMP280_readTempC();
 1088              		.loc 1 204 0
 1089 0006 FFF7FEFF 		bl	BMP280_readTempC
 1090 000a 7860     		str	r0, [r7, #4]	@ float
 205:BMP280.c      **** 	output = (output * 9) / 5 + 32;
 1091              		.loc 1 205 0
 1092 000c 0A49     		ldr	r1, .L29
 1093 000e 7868     		ldr	r0, [r7, #4]	@ float
 1094 0010 FFF7FEFF 		bl	__aeabi_fmul
 1095 0014 0346     		mov	r3, r0
 1096 0016 0949     		ldr	r1, .L29+4
 1097 0018 1846     		mov	r0, r3
 1098 001a FFF7FEFF 		bl	__aeabi_fdiv
 1099 001e 0346     		mov	r3, r0
 1100 0020 4FF08441 		mov	r1, #1107296256
 1101 0024 1846     		mov	r0, r3
ARM GAS  C:\Users\Arisvis\AppData\Local\Temp\cc4xzKPt.s 			page 24


 1102 0026 FFF7FEFF 		bl	__aeabi_fadd
 1103 002a 0346     		mov	r3, r0
 1104 002c 7B60     		str	r3, [r7, #4]	@ float
 206:BMP280.c      **** 
 207:BMP280.c      **** 	return output;
 1105              		.loc 1 207 0
 1106 002e 7B68     		ldr	r3, [r7, #4]	@ float
 208:BMP280.c      **** }
 1107              		.loc 1 208 0
 1108 0030 1846     		mov	r0, r3
 1109 0032 0837     		adds	r7, r7, #8
 1110              		.cfi_def_cfa_offset 8
 1111 0034 BD46     		mov	sp, r7
 1112              		.cfi_def_cfa_register 13
 1113              		@ sp needed
 1114 0036 80BD     		pop	{r7, pc}
 1115              	.L30:
 1116              		.align	2
 1117              	.L29:
 1118 0038 00001041 		.word	1091567616
 1119 003c 0000A040 		.word	1084227584
 1120              		.cfi_endproc
 1121              	.LFE64:
 1122              		.size	BMP280_readTempF, .-BMP280_readTempF
 1123              		.section	.text.BMP280_readRegister,"ax",%progbits
 1124              		.align	2
 1125              		.global	BMP280_readRegister
 1126              		.thumb
 1127              		.thumb_func
 1128              		.type	BMP280_readRegister, %function
 1129              	BMP280_readRegister:
 1130              	.LFB65:
 209:BMP280.c      **** 
 210:BMP280.c      **** //****************************************************************************//
 211:BMP280.c      **** //
 212:BMP280.c      **** //  Utility
 213:BMP280.c      **** //
 214:BMP280.c      **** //****************************************************************************//
 215:BMP280.c      **** uint8_t BMP280_readRegister(uint8_t offset)
 216:BMP280.c      **** {
 1131              		.loc 1 216 0
 1132              		.cfi_startproc
 1133              		@ args = 0, pretend = 0, frame = 16
 1134              		@ frame_needed = 1, uses_anonymous_args = 0
 1135 0000 80B5     		push	{r7, lr}
 1136              		.cfi_def_cfa_offset 8
 1137              		.cfi_offset 7, -8
 1138              		.cfi_offset 14, -4
 1139 0002 84B0     		sub	sp, sp, #16
 1140              		.cfi_def_cfa_offset 24
 1141 0004 00AF     		add	r7, sp, #0
 1142              		.cfi_def_cfa_register 7
 1143 0006 0346     		mov	r3, r0
 1144 0008 FB71     		strb	r3, [r7, #7]
 217:BMP280.c      **** 	//Return value
 218:BMP280.c      **** 	uint8_t result;
 219:BMP280.c      **** 	uint8_t numBytes = 1;
ARM GAS  C:\Users\Arisvis\AppData\Local\Temp\cc4xzKPt.s 			page 25


 1145              		.loc 1 219 0
 1146 000a 0123     		movs	r3, #1
 1147 000c 7B73     		strb	r3, [r7, #13]
 220:BMP280.c      ****     
 221:BMP280.c      ****     uint16  iter;
 222:BMP280.c      ****     
 223:BMP280.c      **** 	switch (bmp280.settings.commInterface) {
 1148              		.loc 1 223 0
 1149 000e 244B     		ldr	r3, .L48
 1150 0010 1B78     		ldrb	r3, [r3]	@ zero_extendqisi2
 1151 0012 002B     		cmp	r3, #0
 1152 0014 02D0     		beq	.L33
 1153 0016 012B     		cmp	r3, #1
 1154 0018 3CD0     		beq	.L45
 224:BMP280.c      **** 
 225:BMP280.c      ****     	case BMP280_I2C_MODE:
 226:BMP280.c      ****             I2C_Wakeup();
 227:BMP280.c      ****             I2C_MasterClearStatus(); /* Clear any previous status */
 228:BMP280.c      ****             
 229:BMP280.c      ****             // Write to register
 230:BMP280.c      ****             I2C_MasterWriteBuf(bmp280.settings.I2CAddress, (uint8 *) &offset, 1, I2C_MODE_COMPLETE_
 231:BMP280.c      ****             for(iter = 0; iter < BMP280_MAX_ITER; iter++)
 232:BMP280.c      ****             {
 233:BMP280.c      ****                 if(0u != (I2C_MasterStatus() & I2C_MSTAT_WR_CMPLT))
 234:BMP280.c      ****                 {
 235:BMP280.c      ****                     /* Transfer complete. Check Master status to make sure that transfer
 236:BMP280.c      ****                     completed without errors. */
 237:BMP280.c      ****                     break;
 238:BMP280.c      ****                 }
 239:BMP280.c      ****             }        
 240:BMP280.c      ****             
 241:BMP280.c      ****             // Read Buffer        
 242:BMP280.c      ****             I2C_MasterReadBuf(bmp280.settings.I2CAddress, &result, numBytes, I2C_MODE_COMPLETE_XFER
 243:BMP280.c      ****             
 244:BMP280.c      ****             for(iter = 0; iter < BMP280_MAX_ITER; iter++){
 245:BMP280.c      ****                 if(0u != (I2C_MasterStatus() & I2C_MSTAT_RD_CMPLT))
 246:BMP280.c      ****                 {
 247:BMP280.c      ****                     /* Transfer complete. Check Master status to make sure that transfer
 248:BMP280.c      ****                     completed without errors. */
 249:BMP280.c      ****                     break;
 250:BMP280.c      ****                 }
 251:BMP280.c      ****                 
 252:BMP280.c      ****             }
 253:BMP280.c      ****             I2C_Sleep();
 254:BMP280.c      **** 
 255:BMP280.c      ****     		break;
 256:BMP280.c      **** 
 257:BMP280.c      ****     	case BMP280_SPI_MODE:
 258:BMP280.c      ****     		// TODO
 259:BMP280.c      ****     		break;
 260:BMP280.c      **** 
 261:BMP280.c      ****     	default:
 262:BMP280.c      ****     		break;
 1155              		.loc 1 262 0
 1156 001a 3CE0     		b	.L43
 1157              	.L33:
 226:BMP280.c      ****             I2C_MasterClearStatus(); /* Clear any previous status */
ARM GAS  C:\Users\Arisvis\AppData\Local\Temp\cc4xzKPt.s 			page 26


 1158              		.loc 1 226 0
 1159 001c FFF7FEFF 		bl	I2C_Wakeup
 227:BMP280.c      ****             
 1160              		.loc 1 227 0
 1161 0020 FFF7FEFF 		bl	I2C_MasterClearStatus
 230:BMP280.c      ****             for(iter = 0; iter < BMP280_MAX_ITER; iter++)
 1162              		.loc 1 230 0
 1163 0024 1E4B     		ldr	r3, .L48
 1164 0026 5878     		ldrb	r0, [r3, #1]	@ zero_extendqisi2
 1165 0028 F91D     		adds	r1, r7, #7
 1166 002a 0023     		movs	r3, #0
 1167 002c 0122     		movs	r2, #1
 1168 002e FFF7FEFF 		bl	I2C_MasterWriteBuf
 231:BMP280.c      ****             {
 1169              		.loc 1 231 0
 1170 0032 0023     		movs	r3, #0
 1171 0034 FB81     		strh	r3, [r7, #14]	@ movhi
 1172 0036 09E0     		b	.L35
 1173              	.L38:
 233:BMP280.c      ****                 {
 1174              		.loc 1 233 0
 1175 0038 FFF7FEFF 		bl	I2C_MasterStatus
 1176 003c 0346     		mov	r3, r0
 1177 003e 03F00203 		and	r3, r3, #2
 1178 0042 002B     		cmp	r3, #0
 1179 0044 07D1     		bne	.L46
 231:BMP280.c      ****             {
 1180              		.loc 1 231 0 discriminator 2
 1181 0046 FB89     		ldrh	r3, [r7, #14]
 1182 0048 0133     		adds	r3, r3, #1
 1183 004a FB81     		strh	r3, [r7, #14]	@ movhi
 1184              	.L35:
 231:BMP280.c      ****             {
 1185              		.loc 1 231 0 is_stmt 0 discriminator 1
 1186 004c FB89     		ldrh	r3, [r7, #14]
 1187 004e B3F5967F 		cmp	r3, #300
 1188 0052 F1D3     		bcc	.L38
 1189 0054 00E0     		b	.L37
 1190              	.L46:
 237:BMP280.c      ****                 }
 1191              		.loc 1 237 0 is_stmt 1
 1192 0056 00BF     		nop
 1193              	.L37:
 242:BMP280.c      ****             
 1194              		.loc 1 242 0
 1195 0058 114B     		ldr	r3, .L48
 1196 005a 5878     		ldrb	r0, [r3, #1]	@ zero_extendqisi2
 1197 005c 7A7B     		ldrb	r2, [r7, #13]	@ zero_extendqisi2
 1198 005e 07F10C01 		add	r1, r7, #12
 1199 0062 0023     		movs	r3, #0
 1200 0064 FFF7FEFF 		bl	I2C_MasterReadBuf
 244:BMP280.c      ****                 if(0u != (I2C_MasterStatus() & I2C_MSTAT_RD_CMPLT))
 1201              		.loc 1 244 0
 1202 0068 0023     		movs	r3, #0
 1203 006a FB81     		strh	r3, [r7, #14]	@ movhi
 1204 006c 09E0     		b	.L39
 1205              	.L42:
ARM GAS  C:\Users\Arisvis\AppData\Local\Temp\cc4xzKPt.s 			page 27


 245:BMP280.c      ****                 {
 1206              		.loc 1 245 0
 1207 006e FFF7FEFF 		bl	I2C_MasterStatus
 1208 0072 0346     		mov	r3, r0
 1209 0074 03F00103 		and	r3, r3, #1
 1210 0078 002B     		cmp	r3, #0
 1211 007a 07D1     		bne	.L47
 244:BMP280.c      ****                 if(0u != (I2C_MasterStatus() & I2C_MSTAT_RD_CMPLT))
 1212              		.loc 1 244 0 discriminator 2
 1213 007c FB89     		ldrh	r3, [r7, #14]
 1214 007e 0133     		adds	r3, r3, #1
 1215 0080 FB81     		strh	r3, [r7, #14]	@ movhi
 1216              	.L39:
 244:BMP280.c      ****                 if(0u != (I2C_MasterStatus() & I2C_MSTAT_RD_CMPLT))
 1217              		.loc 1 244 0 is_stmt 0 discriminator 1
 1218 0082 FB89     		ldrh	r3, [r7, #14]
 1219 0084 B3F5967F 		cmp	r3, #300
 1220 0088 F1D3     		bcc	.L42
 1221 008a 00E0     		b	.L41
 1222              	.L47:
 249:BMP280.c      ****                 }
 1223              		.loc 1 249 0 is_stmt 1
 1224 008c 00BF     		nop
 1225              	.L41:
 253:BMP280.c      **** 
 1226              		.loc 1 253 0
 1227 008e FFF7FEFF 		bl	I2C_Sleep
 255:BMP280.c      **** 
 1228              		.loc 1 255 0
 1229 0092 00E0     		b	.L43
 1230              	.L45:
 259:BMP280.c      **** 
 1231              		.loc 1 259 0
 1232 0094 00BF     		nop
 1233              	.L43:
 263:BMP280.c      **** 	}
 264:BMP280.c      **** 	return result;
 1234              		.loc 1 264 0
 1235 0096 3B7B     		ldrb	r3, [r7, #12]	@ zero_extendqisi2
 265:BMP280.c      **** }
 1236              		.loc 1 265 0
 1237 0098 1846     		mov	r0, r3
 1238 009a 1037     		adds	r7, r7, #16
 1239              		.cfi_def_cfa_offset 8
 1240 009c BD46     		mov	sp, r7
 1241              		.cfi_def_cfa_register 13
 1242              		@ sp needed
 1243 009e 80BD     		pop	{r7, pc}
 1244              	.L49:
 1245              		.align	2
 1246              	.L48:
 1247 00a0 00000000 		.word	bmp280
 1248              		.cfi_endproc
 1249              	.LFE65:
 1250              		.size	BMP280_readRegister, .-BMP280_readRegister
 1251              		.section	.text.BMP280_writeRegister,"ax",%progbits
 1252              		.align	2
ARM GAS  C:\Users\Arisvis\AppData\Local\Temp\cc4xzKPt.s 			page 28


 1253              		.global	BMP280_writeRegister
 1254              		.thumb
 1255              		.thumb_func
 1256              		.type	BMP280_writeRegister, %function
 1257              	BMP280_writeRegister:
 1258              	.LFB66:
 266:BMP280.c      **** 
 267:BMP280.c      **** 
 268:BMP280.c      **** void BMP280_writeRegister(uint8_t offset, uint8_t data)
 269:BMP280.c      **** {
 1259              		.loc 1 269 0
 1260              		.cfi_startproc
 1261              		@ args = 0, pretend = 0, frame = 16
 1262              		@ frame_needed = 1, uses_anonymous_args = 0
 1263 0000 80B5     		push	{r7, lr}
 1264              		.cfi_def_cfa_offset 8
 1265              		.cfi_offset 7, -8
 1266              		.cfi_offset 14, -4
 1267 0002 84B0     		sub	sp, sp, #16
 1268              		.cfi_def_cfa_offset 24
 1269 0004 00AF     		add	r7, sp, #0
 1270              		.cfi_def_cfa_register 7
 1271 0006 0346     		mov	r3, r0
 1272 0008 0A46     		mov	r2, r1
 1273 000a FB71     		strb	r3, [r7, #7]
 1274 000c 1346     		mov	r3, r2
 1275 000e BB71     		strb	r3, [r7, #6]
 270:BMP280.c      ****     uint8 packet[] = {offset, data};
 1276              		.loc 1 270 0
 1277 0010 FB79     		ldrb	r3, [r7, #7]
 1278 0012 3B73     		strb	r3, [r7, #12]
 1279 0014 BB79     		ldrb	r3, [r7, #6]
 1280 0016 7B73     		strb	r3, [r7, #13]
 271:BMP280.c      ****     uint16 iter;
 272:BMP280.c      ****     
 273:BMP280.c      **** 	switch (bmp280.settings.commInterface)
 1281              		.loc 1 273 0
 1282 0018 164B     		ldr	r3, .L61
 1283 001a 1B78     		ldrb	r3, [r3]	@ zero_extendqisi2
 1284 001c 002B     		cmp	r3, #0
 1285 001e 02D0     		beq	.L52
 1286 0020 012B     		cmp	r3, #1
 1287 0022 22D0     		beq	.L59
 274:BMP280.c      **** 	{
 275:BMP280.c      ****     	case BMP280_I2C_MODE:
 276:BMP280.c      ****     		//Write the byte
 277:BMP280.c      ****             I2C_Wakeup();
 278:BMP280.c      ****             I2C_MasterClearStatus(); /* Clear any previous status */
 279:BMP280.c      ****             
 280:BMP280.c      ****             // Write to register
 281:BMP280.c      ****             I2C_MasterWriteBuf(bmp280.settings.I2CAddress, (uint8 *) &packet, 2, I2C_MODE_COMPLETE_
 282:BMP280.c      ****             for(iter = 0; iter < BMP280_MAX_ITER; iter++)
 283:BMP280.c      ****             {
 284:BMP280.c      ****                 if(0u != (I2C_MasterStatus() & I2C_MSTAT_WR_CMPLT))
 285:BMP280.c      ****                 {
 286:BMP280.c      ****                     // Transfer complete. Check Master status to make sure that transfer
 287:BMP280.c      ****                     //completed without errors. 
ARM GAS  C:\Users\Arisvis\AppData\Local\Temp\cc4xzKPt.s 			page 29


 288:BMP280.c      ****                     break;               
 289:BMP280.c      ****                 }
 290:BMP280.c      ****             }          
 291:BMP280.c      ****             
 292:BMP280.c      ****             I2C_Sleep();        
 293:BMP280.c      **** 
 294:BMP280.c      ****     		break;
 295:BMP280.c      **** 
 296:BMP280.c      ****     	case BMP280_SPI_MODE:
 297:BMP280.c      ****     		//TODO
 298:BMP280.c      ****     		break;
 299:BMP280.c      **** 
 300:BMP280.c      ****     	default:
 301:BMP280.c      ****     		break;
 1288              		.loc 1 301 0
 1289 0024 22E0     		b	.L58
 1290              	.L52:
 277:BMP280.c      ****             I2C_MasterClearStatus(); /* Clear any previous status */
 1291              		.loc 1 277 0
 1292 0026 FFF7FEFF 		bl	I2C_Wakeup
 278:BMP280.c      ****             
 1293              		.loc 1 278 0
 1294 002a FFF7FEFF 		bl	I2C_MasterClearStatus
 281:BMP280.c      ****             for(iter = 0; iter < BMP280_MAX_ITER; iter++)
 1295              		.loc 1 281 0
 1296 002e 114B     		ldr	r3, .L61
 1297 0030 5878     		ldrb	r0, [r3, #1]	@ zero_extendqisi2
 1298 0032 07F10C01 		add	r1, r7, #12
 1299 0036 0023     		movs	r3, #0
 1300 0038 0222     		movs	r2, #2
 1301 003a FFF7FEFF 		bl	I2C_MasterWriteBuf
 282:BMP280.c      ****             {
 1302              		.loc 1 282 0
 1303 003e 0023     		movs	r3, #0
 1304 0040 FB81     		strh	r3, [r7, #14]	@ movhi
 1305 0042 09E0     		b	.L54
 1306              	.L57:
 284:BMP280.c      ****                 {
 1307              		.loc 1 284 0
 1308 0044 FFF7FEFF 		bl	I2C_MasterStatus
 1309 0048 0346     		mov	r3, r0
 1310 004a 03F00203 		and	r3, r3, #2
 1311 004e 002B     		cmp	r3, #0
 1312 0050 07D1     		bne	.L60
 282:BMP280.c      ****             {
 1313              		.loc 1 282 0 discriminator 2
 1314 0052 FB89     		ldrh	r3, [r7, #14]
 1315 0054 0133     		adds	r3, r3, #1
 1316 0056 FB81     		strh	r3, [r7, #14]	@ movhi
 1317              	.L54:
 282:BMP280.c      ****             {
 1318              		.loc 1 282 0 is_stmt 0 discriminator 1
 1319 0058 FB89     		ldrh	r3, [r7, #14]
 1320 005a B3F5967F 		cmp	r3, #300
 1321 005e F1D3     		bcc	.L57
 1322 0060 00E0     		b	.L56
 1323              	.L60:
ARM GAS  C:\Users\Arisvis\AppData\Local\Temp\cc4xzKPt.s 			page 30


 288:BMP280.c      ****                 }
 1324              		.loc 1 288 0 is_stmt 1
 1325 0062 00BF     		nop
 1326              	.L56:
 292:BMP280.c      **** 
 1327              		.loc 1 292 0
 1328 0064 FFF7FEFF 		bl	I2C_Sleep
 294:BMP280.c      **** 
 1329              		.loc 1 294 0
 1330 0068 00E0     		b	.L58
 1331              	.L59:
 298:BMP280.c      **** 
 1332              		.loc 1 298 0
 1333 006a 00BF     		nop
 1334              	.L58:
 302:BMP280.c      **** 	}
 303:BMP280.c      **** }
 1335              		.loc 1 303 0 discriminator 1
 1336 006c 00BF     		nop
 1337 006e 1037     		adds	r7, r7, #16
 1338              		.cfi_def_cfa_offset 8
 1339 0070 BD46     		mov	sp, r7
 1340              		.cfi_def_cfa_register 13
 1341              		@ sp needed
 1342 0072 80BD     		pop	{r7, pc}
 1343              	.L62:
 1344              		.align	2
 1345              	.L61:
 1346 0074 00000000 		.word	bmp280
 1347              		.cfi_endproc
 1348              	.LFE66:
 1349              		.size	BMP280_writeRegister, .-BMP280_writeRegister
 1350              		.text
 1351              	.Letext0:
 1352              		.file 2 "c:\\program files (x86)\\cypress\\psoc creator\\4.4\\psoc creator\\import\\gnu\\arm\\5.4.
 1353              		.file 3 "c:\\program files (x86)\\cypress\\psoc creator\\4.4\\psoc creator\\import\\gnu\\arm\\5.4.
 1354              		.file 4 "Generated_Source\\PSoC5/cytypes.h"
 1355              		.file 5 "BMP280.h"
 1356              		.file 6 "Generated_Source\\PSoC5/core_cm3.h"